; Function Attrs: null_pointer_is_valid sspstrong uwtable
define internal fastcc range(i32 2, 65538) i32 @_9p_dissect_string(ptr noundef %0, ptr noundef %1, i32 noundef %2, i32 noundef %3, i32 noundef %4) unnamed_addr #0 {
  %6 = tail call zeroext i16 @tvb_get_letohs(ptr noundef %0, i32 noundef %2)
  %7 = add i32 %2, 2
  %8 = zext i16 %6 to i32
  %9 = tail call ptr @proto_tree_add_item(ptr noundef %1, i32 noundef %3, ptr noundef %0, i32 noundef %7, i32 noundef %8, i32 noundef 2)
  %10 = tail call ptr @proto_item_add_subtree(ptr noundef %9, i32 noundef %4)
  %11 = load i32, ptr @hf_9P_parmsz, align 4
  %12 = tail call ptr @proto_tree_add_item(ptr noundef %10, i32 noundef %11, ptr noundef %0, i32 noundef %2, i32 noundef 2, i32 noundef -2147483648)
  %13 = add nuw nsw i32 %8, 2
  ret i32 %13
}